Certificate:
    Data:
        Version: 3 (0x2)
        Serial Number: 1 (0x1)
        Signature Algorithm: sha256WithRSAEncryption
        Issuer: CN=devcert
        Validity
            Not Before: Sep  7 02:15:10 2020 GMT
            Not After : Dec 11 02:15:10 2022 GMT
        Subject: CN=localhost
        Subject Public Key Info:
            Public Key Algorithm: rsaEncryption
                RSA Public-Key: (2048 bit)
                Modulus:
                    00:c4:a9:be:6c:1a:9e:c3:4b:20:52:9b:ed:da:05:
                    64:15:40:57:a8:7c:e5:ff:6f:68:f9:33:71:58:c4:
                    b2:3c:96:54:a9:89:25:03:97:a6:39:f1:ec:ca:d0:
                    ef:fb:94:fe:1e:2d:2c:ab:11:a4:86:a5:50:b1:61:
                    73:56:6f:87:b6:11:59:ce:a2:f0:93:5a:23:68:4c:
                    9c:c6:b1:b5:61:22:bc:ba:2a:d6:04:00:0d:d6:f4:
                    ef:c6:00:52:de:8b:5b:0f:a3:35:46:d4:36:82:82:
                    ae:cc:15:9e:40:78:c4:0c:1c:70:b5:31:cd:7e:fe:
                    cb:46:a7:00:50:d7:af:a0:9f:af:44:ce:9b:56:72:
                    f8:50:a8:42:1f:90:70:05:e3:32:8c:73:be:8b:f9:
                    4f:10:0c:7a:62:ba:58:91:69:8d:4c:64:f6:56:97:
                    a6:90:8a:e8:4c:27:f4:18:b6:7e:54:a5:a3:97:48:
                    fb:b8:00:49:06:19:e7:d2:33:b9:d2:a6:a6:d2:2d:
                    06:0c:be:99:cf:6c:12:f9:27:89:2b:c3:f2:29:92:
                    b8:98:8a:b0:7f:a9:48:8a:64:7f:a9:a6:cf:a6:2a:
                    55:e4:21:48:a0:f0:3a:6c:ec:d1:84:0b:32:d5:ba:
                    c2:99:38:bc:e6:39:01:f5:51:a2:5d:35:be:8c:09:
                    05:4d
                Exponent: 65537 (0x10001)
        X509v3 extensions:
            X509v3 Basic Constraints: critical
                CA:FALSE
            X509v3 Subject Key Identifier: 
                52:B7:F7:85:42:47:70:C8:51:CF:0E:D3:FD:E2:CA:AC:93:90:83:35
            X509v3 Authority Key Identifier: 
                keyid:5A:F6:83:20:19:1E:4D:A6:F7:25:3B:F4:73:CF:90:66:88:4D:7D:07
                DirName:/CN=devcert
                serial:32:AC:F5:6A:79:EA:77:B3:66:96:64:0E:D9:81:EA:AF:7D:B4:F3:08

            X509v3 Key Usage: critical
                Digital Signature, Key Encipherment
            X509v3 Extended Key Usage: 
                TLS Web Server Authentication
            X509v3 Subject Alternative Name: 
                DNS:localhost, DNS:*.localhost
    Signature Algorithm: sha256WithRSAEncryption
         10:20:bb:ad:24:cf:93:fd:a5:37:1d:9a:b4:0d:e6:6e:2a:97:
         de:ae:32:9b:df:18:2f:dd:98:00:9c:e3:dd:89:e3:d5:00:6d:
         53:de:20:2c:96:8f:3f:31:15:18:fc:21:4b:60:33:b9:88:1e:
         48:00:78:82:34:3f:ad:71:4c:74:10:28:74:50:1a:91:e7:5e:
         6a:e5:d5:1c:19:b6:3d:e9:5c:d6:bd:5a:60:d9:59:4f:5b:20:
         a1:81:52:0f:26:e4:14:1b:0f:9b:02:2d:82:16:32:19:da:a7:
         ac:60:70:fa:8e:a0:04:9e:e5:c2:75:8e:b8:14:ef:0c:e0:80:
         64:1e:21:57:8f:52:b7:1c:ba:72:c1:15:88:63:45:67:8f:e4:
         bc:7b:ae:6b:6a:33:fb:60:4f:29:ea:9f:5f:c1:db:7a:5b:72:
         f8:22:a3:08:0d:8f:4a:21:61:fc:0f:ad:0e:9e:ac:1a:cc:c0:
         f7:22:bf:14:8a:3d:f1:82:68:26:75:25:6e:4b:1e:80:d0:b5:
         1f:b4:be:1b:92:3b:11:e0:eb:d7:17:6d:9a:f1:89:5e:db:a9:
         99:8f:04:b5:21:53:b6:2e:9d:78:47:0d:61:34:12:74:56:51:
         89:08:e0:b8:10:6e:9a:2c:a7:ca:84:a1:0d:54:6d:a2:35:08:
         4c:5d:fd:b4
-----BEGIN CERTIFICATE-----
MIIDaTCCAlGgAwIBAgIBATANBgkqhkiG9w0BAQsFADASMRAwDgYDVQQDDAdkZXZj
ZXJ0MB4XDTIwMDkwNzAyMTUxMFoXDTIyMTIxMTAyMTUxMFowFDESMBAGA1UEAwwJ
bG9jYWxob3N0MIIBIjANBgkqhkiG9w0BAQEFAAOCAQ8AMIIBCgKCAQEAxKm+bBqe
w0sgUpvt2gVkFUBXqHzl/29o+TNxWMSyPJZUqYklA5emOfHsytDv+5T+Hi0sqxGk
hqVQsWFzVm+HthFZzqLwk1ojaEycxrG1YSK8uirWBAAN1vTvxgBS3otbD6M1RtQ2
goKuzBWeQHjEDBxwtTHNfv7LRqcAUNevoJ+vRM6bVnL4UKhCH5BwBeMyjHO+i/lP
EAx6YrpYkWmNTGT2VpemkIroTCf0GLZ+VKWjl0j7uABJBhnn0jO50qam0i0GDL6Z
z2wS+SeJK8PyKZK4mIqwf6lIimR/qabPpipV5CFIoPA6bOzRhAsy1brCmTi85jkB
9VGiXTW+jAkFTQIDAQABo4HHMIHEMAwGA1UdEwEB/wQCMAAwHQYDVR0OBBYEFFK3
94VCR3DIUc8O0/3iyqyTkIM1ME0GA1UdIwRGMESAFFr2gyAZHk2m9yU79HPPkGaI
TX0HoRakFDASMRAwDgYDVQQDDAdkZXZjZXJ0ghQyrPVqeep3s2aWZA7ZgeqvfbTz
CDAOBgNVHQ8BAf8EBAMCBaAwEwYDVR0lBAwwCgYIKwYBBQUHAwEwIQYDVR0RBBow
GIIJbG9jYWxob3N0ggsqLmxvY2FsaG9zdDANBgkqhkiG9w0BAQsFAAOCAQEAECC7
rSTPk/2lNx2atA3mbiqX3q4ym98YL92YAJzj3Ynj1QBtU94gLJaPPzEVGPwhS2Az
uYgeSAB4gjQ/rXFMdBAodFAakedeauXVHBm2Pelc1r1aYNlZT1sgoYFSDybkFBsP
mwItghYyGdqnrGBw+o6gBJ7lwnWOuBTvDOCAZB4hV49Stxy6csEViGNFZ4/kvHuu
a2oz+2BPKeqfX8Hbelty+CKjCA2PSiFh/A+tDp6sGszA9yK/FIo98YJoJnUlbkse
gNC1H7S+G5I7EeDr1xdtmvGJXtupmY8EtSFTti6deEcNYTQSdFZRiQjguBBumiyn
yoShDVRtojUITF39tA==
-----END CERTIFICATE-----
